; Function Attrs: mustprogress uwtable
define void @_ZN5arrow10StopSource11RequestStopENS_6StatusE(ptr noundef nonnull readonly align 8 captures(none) dereferenceable(16) %0, ptr noundef captures(none) %1) local_unnamed_addr #0 align 2 personality ptr @__gxx_personality_v0 {
  %3 = load ptr, ptr %0, align 8, !tbaa !23
  %4 = getelementptr inbounds nuw i8, ptr %3, i64 8
  %5 = tail call noundef i32 @pthread_mutex_lock(ptr noundef nonnull align 8 dereferenceable(40) %4) #27
  %.not.i.i = icmp eq i32 %5, 0
  br i1 %.not.i.i, label %_ZNSt10lock_guardISt5mutexEC2ERS0_.exit, label %6

6:                                                ; preds = %2
  tail call void @_ZSt20__throw_system_errori(i32 noundef %5) #28
  unreachable

_ZNSt10lock_guardISt5mutexEC2ERS0_.exit:          ; preds = %2
  %7 = load ptr, ptr %0, align 8, !tbaa !23
  %8 = load atomic i32, ptr %7 seq_cst, align 4
  %.not = icmp eq i32 %8, 0
  br i1 %.not, label %9, label %20

9:                                                ; preds = %_ZNSt10lock_guardISt5mutexEC2ERS0_.exit
  %10 = load ptr, ptr %0, align 8, !tbaa !23
  store atomic i32 -1, ptr %10 seq_cst, align 4
  %11 = load ptr, ptr %0, align 8, !tbaa !23
  %12 = getelementptr inbounds nuw i8, ptr %11, i64 48
  %13 = load ptr, ptr %12, align 8, !tbaa !25
  %.not.i.i1 = icmp eq ptr %13, null
  br i1 %.not.i.i1, label %_ZN5arrow6StatusaSEOS0_.exit, label %14, !prof !28

14:                                               ; preds = %9
  %15 = getelementptr inbounds nuw i8, ptr %13, i64 1
  %16 = load i8, ptr %15, align 1, !tbaa !29, !range !40, !noundef !41
  %17 = trunc nuw i8 %16 to i1
  br i1 %17, label %_ZN5arrow6StatusaSEOS0_.exit, label %18

18:                                               ; preds = %14
  tail call void @_ZN5arrow6Status11DeleteStateEv(ptr noundef nonnull align 8 dereferenceable(8) %12) #27
  br label %_ZN5arrow6StatusaSEOS0_.exit

_ZN5arrow6StatusaSEOS0_.exit:                     ; preds = %9, %14, %18
  %19 = load ptr, ptr %1, align 8, !tbaa !25
  store ptr %19, ptr %12, align 8, !tbaa !25
  store ptr null, ptr %1, align 8, !tbaa !25
  br label %20

20:                                               ; preds = %_ZN5arrow6StatusaSEOS0_.exit, %_ZNSt10lock_guardISt5mutexEC2ERS0_.exit
  %21 = tail call noundef i32 @pthread_mutex_unlock(ptr noundef nonnull align 8 dereferenceable(40) %4) #27
  ret void
}